; Function Attrs: mustprogress uwtable
define noundef nonnull align 8 dereferenceable(56) ptr @_ZN5ZXing9GenericGF11AztecData10Ev() local_unnamed_addr #0 align 2 personality ptr @__gxx_personality_v0 {
  %1 = load atomic i8, ptr @_ZGVZN5ZXing9GenericGF11AztecData10EvE4inst acquire, align 8
  %2 = icmp eq i8 %1, 0
  br i1 %2, label %3, label %8, !prof !3

3:                                                ; preds = %0
  %4 = tail call i32 @__cxa_guard_acquire(ptr nonnull @_ZGVZN5ZXing9GenericGF11AztecData10EvE4inst) #10
  %.not = icmp eq i32 %4, 0
  br i1 %.not, label %8, label %5

5:                                                ; preds = %3
  invoke void @_ZN5ZXing9GenericGFC1Eiii(ptr noundef nonnull align 8 dereferenceable(56) @_ZZN5ZXing9GenericGF11AztecData10EvE4inst, i32 noundef 1033, i32 noundef 1024, i32 noundef 1)
          to label %6 unwind label %9

6:                                                ; preds = %5
  %7 = tail call i32 @__cxa_atexit(ptr nonnull @_ZN5ZXing9GenericGFD2Ev, ptr nonnull @_ZZN5ZXing9GenericGF11AztecData10EvE4inst, ptr nonnull @__dso_handle) #10
  tail call void @__cxa_guard_release(ptr nonnull @_ZGVZN5ZXing9GenericGF11AztecData10EvE4inst) #10
  br label %8

8:                                                ; preds = %6, %3, %0
  ret ptr @_ZZN5ZXing9GenericGF11AztecData10EvE4inst

9:                                                ; preds = %5
  %10 = landingpad { ptr, i32 }
          cleanup
  tail call void @__cxa_guard_abort(ptr nonnull @_ZGVZN5ZXing9GenericGF11AztecData10EvE4inst) #10
  resume { ptr, i32 } %10
}